target datalayout = "e-m:e-p270:32:32-p271:32:32-p272:64:64-i64:64-i128:128-f80:128-n8:16:32:64-S128"
target triple = "x86_64-pc-linux-gnu"

%"class.absl::lts_20240722::Status" = type { i64 }
%"class.absl::lts_20240722::FunctionRef" = type { %"union.absl::lts_20240722::functional_internal::VoidPtr", ptr }
%"union.absl::lts_20240722::functional_internal::VoidPtr" = type { ptr }
%class.anon = type { ptr, i64 }
%"class.grpc_core::chttp2::StreamFlowControl::IncomingUpdateContext" = type { %"class.grpc_core::chttp2::TransportFlowControl::IncomingUpdateContext", ptr }
%"class.grpc_core::chttp2::TransportFlowControl::IncomingUpdateContext" = type { ptr }

; Function Attrs: mustprogress nounwind uwtable
define internal void @"_ZN4absl12lts_2024072219functional_internal13AssertNonNullIZN9grpc_core6chttp217StreamFlowControl21IncomingUpdateContext8RecvDataElE3$_0EEvRKT_"(ptr noundef nonnull align 8 dereferenceable(16) %0) #8 {
  %2 = alloca ptr, align 8
  store ptr %0, ptr %2, align 8, !tbaa !93
  ret void
}

; Function Attrs: mustprogress uwtable
define internal void @"_ZN4absl12lts_2024072211FunctionRefIFNS0_6StatusEvEEC2IZN9grpc_core6chttp217StreamFlowControl21IncomingUpdateContext8RecvDataElE3$_0vEERKT_"(ptr noundef nonnull align 8 dereferenceable(16) %0, ptr noundef nonnull align 8 dereferenceable(16) %1) unnamed_addr #4 align 2 {
  %3 = alloca ptr, align 8
  %4 = alloca ptr, align 8
  store ptr %0, ptr %3, align 8, !tbaa !91
  store ptr %1, ptr %4, align 8, !tbaa !93
  %5 = load ptr, ptr %3, align 8
  %6 = getelementptr inbounds nuw %"class.absl::lts_20240722::FunctionRef", ptr %5, i32 0, i32 1
  store ptr @"_ZN4absl12lts_2024072219functional_internal12InvokeObjectIZN9grpc_core6chttp217StreamFlowControl21IncomingUpdateContext8RecvDataElE3$_0NS0_6StatusEJEEET0_NS1_7VoidPtrEDpNS1_8ForwardTIT1_E4typeE", ptr %6, align 8, !tbaa !94
  %7 = load ptr, ptr %4, align 8, !tbaa !93
  call void @"_ZN4absl12lts_2024072219functional_internal13AssertNonNullIZN9grpc_core6chttp217StreamFlowControl21IncomingUpdateContext8RecvDataElE3$_0EEvRKT_"(ptr noundef nonnull align 8 dereferenceable(16) %7)
  %8 = load ptr, ptr %4, align 8, !tbaa !93
  %9 = getelementptr inbounds nuw %"class.absl::lts_20240722::FunctionRef", ptr %5, i32 0, i32 0
  store ptr %8, ptr %9, align 8, !tbaa !96
  ret void
}

; Function Attrs: mustprogress uwtable
define void @_ZN9grpc_core6chttp217StreamFlowControl21IncomingUpdateContext8RecvDataEl(ptr dead_on_unwind noalias writable sret(%"class.absl::lts_20240722::Status") align 8 %0, ptr noundef nonnull align 8 dereferenceable(16) %1, i64 noundef %2) #4 align 2 {
  %4 = alloca ptr, align 8
  %5 = alloca ptr, align 8
  %6 = alloca i64, align 8
  %7 = alloca %"class.absl::lts_20240722::FunctionRef", align 8
  %8 = alloca %class.anon, align 8
  store ptr %0, ptr %4, align 8
  store ptr %1, ptr %5, align 8, !tbaa !82
  store i64 %2, ptr %6, align 8, !tbaa !34
  %9 = load ptr, ptr %5, align 8
  %10 = getelementptr inbounds nuw %"class.grpc_core::chttp2::StreamFlowControl::IncomingUpdateContext", ptr %9, i32 0, i32 0
  %11 = load i64, ptr %6, align 8, !tbaa !34
  call void @llvm.lifetime.start.p0(i64 16, ptr %8) #3
  %12 = getelementptr inbounds nuw %class.anon, ptr %8, i32 0, i32 0
  store ptr %9, ptr %12, align 8, !tbaa !84
  %13 = getelementptr inbounds nuw %class.anon, ptr %8, i32 0, i32 1
  %14 = load i64, ptr %6, align 8, !tbaa !34
  store i64 %14, ptr %13, align 8, !tbaa !86
  call void @"_ZN4absl12lts_2024072211FunctionRefIFNS0_6StatusEvEEC2IZN9grpc_core6chttp217StreamFlowControl21IncomingUpdateContext8RecvDataElE3$_0vEERKT_"(ptr noundef nonnull align 8 dereferenceable(16) %7, ptr noundef nonnull align 8 dereferenceable(16) %8)
  %15 = getelementptr inbounds nuw { ptr, ptr }, ptr %7, i32 0, i32 0
  %16 = load ptr, ptr %15, align 8
  %17 = getelementptr inbounds nuw { ptr, ptr }, ptr %7, i32 0, i32 1
  %18 = load ptr, ptr %17, align 8
  call void @_ZN9grpc_core6chttp220TransportFlowControl21IncomingUpdateContext8RecvDataElN4absl12lts_2024072211FunctionRefIFNS4_6StatusEvEEE(ptr dead_on_unwind writable sret(%"class.absl::lts_20240722::Status") align 8 %0, ptr noundef nonnull align 8 dereferenceable(8) %10, i64 noundef %11, ptr %16, ptr %18)
  call void @llvm.lifetime.end.p0(i64 16, ptr %8) #3
  ret void
}