; Function Attrs: mustprogress uwtable
define void @_ZN9grpc_core6chttp217StreamFlowControl21IncomingUpdateContext8RecvDataEl(ptr dead_on_unwind noalias writable sret(%"class.absl::lts_20240722::Status") align 8 %0, ptr noundef nonnull align 8 dereferenceable(16) %1, i64 noundef %2) local_unnamed_addr #3 align 2 {
  %4 = alloca %class.anon, align 8
  call void @llvm.lifetime.start.p0(i64 16, ptr nonnull %4) #28
  store ptr %1, ptr %4, align 8, !tbaa !76
  %5 = getelementptr inbounds nuw i8, ptr %4, i64 8
  store i64 %2, ptr %5, align 8, !tbaa !79
  call void @_ZN9grpc_core6chttp220TransportFlowControl21IncomingUpdateContext8RecvDataElN4absl12lts_2024072211FunctionRefIFNS4_6StatusEvEEE(ptr dead_on_unwind writable sret(%"class.absl::lts_20240722::Status") align 8 %0, ptr noundef nonnull align 8 dereferenceable(8) %1, i64 noundef %2, ptr nonnull %4, ptr nonnull @"_ZN4absl12lts_2024072219functional_internal12InvokeObjectIZN9grpc_core6chttp217StreamFlowControl21IncomingUpdateContext8RecvDataElE3$_0NS0_6StatusEJEEET0_NS1_7VoidPtrEDpNS1_8ForwardTIT1_E4typeE")
  call void @llvm.lifetime.end.p0(i64 16, ptr nonnull %4) #28
  ret void
}